target datalayout = "e-m:e-p270:32:32-p271:32:32-p272:64:64-i64:64-i128:128-f80:128-n8:16:32:64-S128"
target triple = "x86_64-pc-linux-gnu"

%"struct.std::pair" = type { double, double }

; Function Attrs: mustprogress uwtable
define hidden noundef zeroext i1 @_ZNK6Assimp3IFC5Curve11ReverseEvalERK10aiVector3tIdERd(ptr noundef nonnull align 8 dereferenceable(24) %0, ptr noundef nonnull align 8 dereferenceable(24) %1, ptr noundef nonnull align 8 dereferenceable(8) %2) unnamed_addr #1 align 2 {
  %4 = alloca ptr, align 8
  %5 = alloca ptr, align 8
  %6 = alloca ptr, align 8
  %7 = alloca ptr, align 8
  %8 = alloca %"struct.std::pair", align 8
  store ptr %0, ptr %4, align 8
  store ptr %1, ptr %5, align 8
  store ptr %2, ptr %6, align 8
  %9 = load ptr, ptr %4, align 8
  call void @llvm.lifetime.start.p0(i64 8, ptr %7) #19
  call void @llvm.lifetime.start.p0(i64 16, ptr %8) #19
  %10 = load ptr, ptr %9, align 8
  %11 = getelementptr inbounds ptr, ptr %10, i64 5
  %12 = load ptr, ptr %11, align 8
  %13 = call { double, double } %12(ptr noundef nonnull align 8 dereferenceable(24) %9)
  %14 = getelementptr inbounds nuw { double, double }, ptr %8, i32 0, i32 0
  %15 = extractvalue { double, double } %13, 0
  store double %15, ptr %14, align 8
  %16 = getelementptr inbounds nuw { double, double }, ptr %8, i32 0, i32 1
  %17 = extractvalue { double, double } %13, 1
  store double %17, ptr %16, align 8
  store ptr %8, ptr %7, align 8
  %18 = load ptr, ptr %5, align 8
  %19 = load ptr, ptr %7, align 8
  %20 = getelementptr inbounds nuw %"struct.std::pair", ptr %19, i32 0, i32 0
  %21 = load double, ptr %20, align 8
  %22 = load ptr, ptr %7, align 8
  %23 = getelementptr inbounds nuw %"struct.std::pair", ptr %22, i32 0, i32 1
  %24 = load double, ptr %23, align 8
  %25 = call noundef double @_ZN6Assimp3IFC15RecursiveSearchEPKNS0_5CurveERK10aiVector3tIdEddjdjj(ptr noundef %9, ptr noundef nonnull align 8 dereferenceable(24) %18, double noundef %21, double noundef %24, i32 noundef 16, double noundef 0x3F1A36E2E0000000, i32 noundef 0, i32 noundef 15)
  %26 = load ptr, ptr %6, align 8
  store double %25, ptr %26, align 8
  call void @llvm.lifetime.end.p0(i64 16, ptr %8) #19
  call void @llvm.lifetime.end.p0(i64 8, ptr %7) #19
  ret i1 true
}