; Function Attrs: mustprogress uwtable
define hidden noundef zeroext i1 @_ZNK6Assimp3IFC5Curve11ReverseEvalERK10aiVector3tIdERd(ptr noundef nonnull align 8 dereferenceable(24) %0, ptr noundef nonnull readonly align 8 captures(none) dereferenceable(24) %1, ptr noundef nonnull writeonly align 8 captures(none) dereferenceable(8) initializes((0, 8)) %2) unnamed_addr #1 align 2 {
  %4 = load ptr, ptr %0, align 8
  %5 = getelementptr inbounds nuw i8, ptr %4, i64 40
  %6 = load ptr, ptr %5, align 8
  %7 = tail call { double, double } %6(ptr noundef nonnull align 8 dereferenceable(24) %0)
  %8 = extractvalue { double, double } %7, 0
  %9 = extractvalue { double, double } %7, 1
  %10 = tail call noundef double @_ZN6Assimp3IFC15RecursiveSearchEPKNS0_5CurveERK10aiVector3tIdEddjdjj(ptr noundef nonnull %0, ptr noundef nonnull align 8 dereferenceable(24) %1, double noundef %8, double noundef %9, i32 noundef 16, double noundef 0x3F1A36E2E0000000, i32 noundef 0, i32 noundef 15)
  store double %10, ptr %2, align 8
  ret i1 true
}